target datalayout = "e-m:e-p270:32:32-p271:32:32-p272:64:64-i64:64-i128:128-f80:128-n8:16:32:64-S128"
target triple = "x86_64-unknown-linux-gnu"

%"class.std::vector.0" = type { %"struct.std::_Vector_base.1" }
%"struct.std::_Vector_base.1" = type { %"struct.std::_Vector_base<double, std::allocator<double>>::_Vector_impl" }
%"struct.std::_Vector_base<double, std::allocator<double>>::_Vector_impl" = type { %"struct.std::_Vector_base<double, std::allocator<double>>::_Vector_impl_data" }
%"struct.std::_Vector_base<double, std::allocator<double>>::_Vector_impl_data" = type { ptr, ptr, ptr }
%"class.QuantLib::Burley2020SobolRsg" = type { i64, i64, i32, %"class.boost::shared_ptr", %"class.std::vector", %"struct.QuantLib::Sample", i32, %"class.std::vector" }
%"class.boost::shared_ptr" = type { ptr, %"class.boost::detail::shared_count" }
%"class.boost::detail::shared_count" = type { ptr }
%"struct.QuantLib::Sample" = type { %"class.std::vector.0", double }
%"class.std::vector" = type { %"struct.std::_Vector_base" }
%"struct.std::_Vector_base" = type { %"struct.std::_Vector_base<unsigned int, std::allocator<unsigned int>>::_Vector_impl" }
%"struct.std::_Vector_base<unsigned int, std::allocator<unsigned int>>::_Vector_impl" = type { %"struct.std::_Vector_base<unsigned int, std::allocator<unsigned int>>::_Vector_impl_data" }
%"struct.std::_Vector_base<unsigned int, std::allocator<unsigned int>>::_Vector_impl_data" = type { ptr, ptr, ptr }

; Function Attrs: mustprogress nounwind uwtable
define linkonce_odr noundef nonnull align 8 dereferenceable(8) ptr @_ZNSt6vectorIdSaIdEEixEm(ptr noundef nonnull align 8 dereferenceable(24) %this, i64 noundef %__n) #1 comdat align 2 {
entry:
  %this.addr = alloca ptr, align 8
  %__n.addr = alloca i64, align 8
  store ptr %this, ptr %this.addr, align 8, !tbaa !3
  store i64 %__n, ptr %__n.addr, align 8, !tbaa !7
  %this1 = load ptr, ptr %this.addr, align 8
  %_M_impl = getelementptr inbounds nuw %"struct.std::_Vector_base.1", ptr %this1, i32 0, i32 0
  %_M_start = getelementptr inbounds nuw %"struct.std::_Vector_base<double, std::allocator<double>>::_Vector_impl_data", ptr %_M_impl, i32 0, i32 0
  %0 = load ptr, ptr %_M_start, align 8, !tbaa !32
  %1 = load i64, ptr %__n.addr, align 8, !tbaa !7
  %add.ptr = getelementptr inbounds nuw double, ptr %0, i64 %1
  ret ptr %add.ptr
}

; Function Attrs: mustprogress nounwind uwtable
define linkonce_odr noundef nonnull align 4 dereferenceable(4) ptr @_ZNKSt6vectorIjSaIjEEixEm(ptr noundef nonnull align 8 dereferenceable(24) %this, i64 noundef %__n) #1 comdat align 2 {
entry:
  %this.addr = alloca ptr, align 8
  %__n.addr = alloca i64, align 8
  store ptr %this, ptr %this.addr, align 8, !tbaa !3
  store i64 %__n, ptr %__n.addr, align 8, !tbaa !7
  %this1 = load ptr, ptr %this.addr, align 8
  %_M_impl = getelementptr inbounds nuw %"struct.std::_Vector_base", ptr %this1, i32 0, i32 0
  %_M_start = getelementptr inbounds nuw %"struct.std::_Vector_base<unsigned int, std::allocator<unsigned int>>::_Vector_impl_data", ptr %_M_impl, i32 0, i32 0
  %0 = load ptr, ptr %_M_start, align 8, !tbaa !37
  %1 = load i64, ptr %__n.addr, align 8, !tbaa !7
  %add.ptr = getelementptr inbounds nuw i32, ptr %0, i64 %1
  ret ptr %add.ptr
}

; Function Attrs: mustprogress uwtable
define noundef nonnull align 8 dereferenceable(32) ptr @_ZNK8QuantLib18Burley2020SobolRsg12nextSequenceEv(ptr noundef nonnull align 8 dereferenceable(128) %this) #0 align 2 {
entry:
  %this.addr = alloca ptr, align 8
  %v = alloca ptr, align 8
  %k = alloca i64, align 8
  store ptr %this, ptr %this.addr, align 8, !tbaa !3
  %this1 = load ptr, ptr %this.addr, align 8
  call void @llvm.lifetime.start.p0(i64 8, ptr %v) #15
  %call = call noundef nonnull align 8 dereferenceable(24) ptr @_ZNK8QuantLib18Burley2020SobolRsg17nextInt32SequenceEv(ptr noundef nonnull align 8 dereferenceable(128) %this1)
  store ptr %call, ptr %v, align 8, !tbaa !3
  call void @llvm.lifetime.start.p0(i64 8, ptr %k) #15
  store i64 0, ptr %k, align 8, !tbaa !7
  br label %for.cond

for.cond:                                         ; preds = %for.inc, %entry
  %0 = load i64, ptr %k, align 8, !tbaa !7
  %dimensionality_ = getelementptr inbounds nuw %"class.QuantLib::Burley2020SobolRsg", ptr %this1, i32 0, i32 0
  %1 = load i64, ptr %dimensionality_, align 8, !tbaa !11
  %cmp = icmp ult i64 %0, %1
  br i1 %cmp, label %for.body, label %for.cond.cleanup

for.cond.cleanup:                                 ; preds = %for.cond
  call void @llvm.lifetime.end.p0(i64 8, ptr %k) #15
  br label %for.end

for.body:                                         ; preds = %for.cond
  %2 = load ptr, ptr %v, align 8, !tbaa !3
  %3 = load i64, ptr %k, align 8, !tbaa !7
  %call2 = call noundef nonnull align 4 dereferenceable(4) ptr @_ZNKSt6vectorIjSaIjEEixEm(ptr noundef nonnull align 8 dereferenceable(24) %2, i64 noundef %3) #15
  %4 = load i32, ptr %call2, align 4, !tbaa !28
  %conv = uitofp i32 %4 to double
  %div = fdiv double %conv, 0x41F0000000000000
  %sequence_ = getelementptr inbounds nuw %"class.QuantLib::Burley2020SobolRsg", ptr %this1, i32 0, i32 5
  %value = getelementptr inbounds nuw %"struct.QuantLib::Sample", ptr %sequence_, i32 0, i32 0
  %5 = load i64, ptr %k, align 8, !tbaa !7
  %call3 = call noundef nonnull align 8 dereferenceable(8) ptr @_ZNSt6vectorIdSaIdEEixEm(ptr noundef nonnull align 8 dereferenceable(24) %value, i64 noundef %5) #15
  store double %div, ptr %call3, align 8, !tbaa !30
  br label %for.inc

for.inc:                                          ; preds = %for.body
  %6 = load i64, ptr %k, align 8, !tbaa !7
  %inc = add i64 %6, 1
  store i64 %inc, ptr %k, align 8, !tbaa !7
  br label %for.cond, !llvm.loop !52

for.end:                                          ; preds = %for.cond.cleanup
  %sequence_4 = getelementptr inbounds nuw %"class.QuantLib::Burley2020SobolRsg", ptr %this1, i32 0, i32 5
  call void @llvm.lifetime.end.p0(i64 8, ptr %v) #15
  ret ptr %sequence_4
}