; Function Attrs: mustprogress uwtable
define noundef nonnull align 8 dereferenceable(32) ptr @_ZNK8QuantLib18Burley2020SobolRsg12nextSequenceEv(ptr noundef nonnull align 8 dereferenceable(128) %this) local_unnamed_addr #0 align 2 {
entry:
  %call = tail call noundef nonnull align 8 dereferenceable(24) ptr @_ZNK8QuantLib18Burley2020SobolRsg17nextInt32SequenceEv(ptr noundef nonnull align 8 dereferenceable(128) %this)
  %0 = load i64, ptr %this, align 8, !tbaa !3
  %cmp5.not = icmp eq i64 %0, 0
  br i1 %cmp5.not, label %for.cond.cleanup, label %for.body.lr.ph

for.body.lr.ph:                                   ; preds = %entry
  %1 = load ptr, ptr %call, align 8, !tbaa !25
  %sequence_ = getelementptr inbounds nuw i8, ptr %this, i64 64
  %2 = load ptr, ptr %sequence_, align 8, !tbaa !30
  br label %for.body

for.cond.cleanup:                                 ; preds = %for.body, %entry
  %sequence_4 = getelementptr inbounds nuw i8, ptr %this, i64 64
  ret ptr %sequence_4

for.body:                                         ; preds = %for.body.lr.ph, %for.body
  %k.06 = phi i64 [ 0, %for.body.lr.ph ], [ %inc, %for.body ]
  %add.ptr.i = getelementptr inbounds nuw i32, ptr %1, i64 %k.06
  %3 = load i32, ptr %add.ptr.i, align 4, !tbaa !27
  %conv = uitofp i32 %3 to double
  %div = fmul double %conv, 0x3DF0000000000000
  %add.ptr.i4 = getelementptr inbounds nuw double, ptr %2, i64 %k.06
  store double %div, ptr %add.ptr.i4, align 8, !tbaa !29
  %inc = add nuw i64 %k.06, 1
  %exitcond.not = icmp eq i64 %inc, %0
  br i1 %exitcond.not, label %for.cond.cleanup, label %for.body, !llvm.loop !66
}